; Function Attrs: nounwind uwtable
define i32 @wolfSSL_use_PrivateKey_buffer(ptr noundef %0, ptr noundef %1, i64 noundef %2, i32 noundef %3) local_unnamed_addr #0 {
  %5 = alloca i64, align 8
  call void @llvm.lifetime.start.p0(i64 8, ptr nonnull %5) #22
  %6 = icmp eq ptr %0, null
  br i1 %6, label %14, label %7

7:                                                ; preds = %4
  %8 = load ptr, ptr %0, align 16, !tbaa !96
  %9 = getelementptr inbounds nuw i8, ptr %0, i64 1024
  %10 = load i64, ptr %9, align 8
  %11 = and i64 %10, 128
  %.not = icmp eq i64 %11, 0
  %12 = zext i1 %.not to i32
  %13 = call i32 @ProcessBuffer(ptr noundef %8, ptr noundef %1, i64 noundef %2, i32 noundef %3, i32 noundef 1, ptr noundef nonnull %0, ptr noundef nonnull %5, i32 noundef 0, i32 noundef %12)
  br label %14

14:                                               ; preds = %4, %7
  %.0 = phi i32 [ %13, %7 ], [ -173, %4 ]
  call void @llvm.lifetime.end.p0(i64 8, ptr nonnull %5) #22
  ret i32 %.0
}